; Function Attrs: mustprogress nofree norecurse nosync nounwind willreturn memory(read, inaccessiblemem: none) uwtable
define dso_local noundef zeroext i1 @_ZNK4llvm12MachineInstr19hasPropertyInBundleEmNS0_9QueryTypeE(ptr nocapture noundef nonnull readonly align 8 dereferenceable(70) %0, i64 noundef %1, i32 noundef %2) local_unnamed_addr #3 align 2 {
  switch i32 %2, label %.split10.us [
    i32 2, label %.split.us.split
    i32 1, label %.split.split.us
  ]

.split.us.split:                                  ; preds = %3, %17
  %.sroa.0.0.us = phi ptr [ %19, %17 ], [ %0, %3 ]
  %4 = getelementptr inbounds nuw i8, ptr %.sroa.0.0.us, i64 16
  %5 = load ptr, ptr %4, align 8
  %6 = getelementptr inbounds nuw i8, ptr %5, i64 16
  %7 = load i64, ptr %6, align 8
  %8 = and i64 %7, %1
  %.not.us = icmp eq i64 %8, 0
  br i1 %.not.us, label %9, label %13

9:                                                ; preds = %.split.us.split
  %10 = getelementptr inbounds nuw i8, ptr %.sroa.0.0.us, i64 68
  %11 = load i16, ptr %10, align 4
  %12 = icmp eq i16 %11, 20
  br i1 %12, label %13, label %.loopexit

13:                                               ; preds = %.split.us.split, %9
  %14 = getelementptr inbounds nuw i8, ptr %.sroa.0.0.us, i64 44
  %15 = load i32, ptr %14, align 4
  %16 = and i32 %15, 8
  %.not8.us = icmp eq i32 %16, 0
  br i1 %.not8.us, label %.split10.us, label %17

17:                                               ; preds = %13
  %18 = getelementptr inbounds nuw i8, ptr %.sroa.0.0.us, i64 8
  %19 = load ptr, ptr %18, align 8
  br label %.split.us.split, !llvm.loop !21

.split.split.us:                                  ; preds = %3
  %20 = getelementptr inbounds nuw i8, ptr %0, i64 16
  %21 = load ptr, ptr %20, align 8
  %22 = getelementptr inbounds nuw i8, ptr %21, i64 16
  %23 = load i64, ptr %22, align 8
  %24 = and i64 %23, %1
  %.not.us1214 = icmp eq i64 %24, 0
  br i1 %.not.us1214, label %.lr.ph, label %.loopexit

.lr.ph:                                           ; preds = %.split.split.us, %28
  %.sroa.0.0.us1115 = phi ptr [ %30, %28 ], [ %0, %.split.split.us ]
  %25 = getelementptr inbounds nuw i8, ptr %.sroa.0.0.us1115, i64 44
  %26 = load i32, ptr %25, align 4
  %27 = and i32 %26, 8
  %.not8.us13 = icmp eq i32 %27, 0
  br i1 %.not8.us13, label %.split10.us, label %28

28:                                               ; preds = %.lr.ph
  %29 = getelementptr inbounds nuw i8, ptr %.sroa.0.0.us1115, i64 8
  %30 = load ptr, ptr %29, align 8
  %31 = getelementptr inbounds nuw i8, ptr %30, i64 16
  %32 = load ptr, ptr %31, align 8
  %33 = getelementptr inbounds nuw i8, ptr %32, i64 16
  %34 = load i64, ptr %33, align 8
  %35 = and i64 %34, %1
  %.not.us12 = icmp eq i64 %35, 0
  br i1 %.not.us12, label %.lr.ph, label %.loopexit, !llvm.loop !21

.split10.us:                                      ; preds = %.lr.ph, %13, %3
  %36 = icmp eq i32 %2, 2
  br label %.loopexit

.loopexit:                                        ; preds = %28, %9, %.split.split.us, %.split10.us
  %.0 = phi i1 [ %36, %.split10.us ], [ true, %.split.split.us ], [ false, %9 ], [ true, %28 ]
  ret i1 %.0
}